; Function Attrs: mustprogress nofree norecurse nosync nounwind willreturn memory(read, inaccessiblemem: none) uwtable
define noundef zeroext i1 @_ZNK9grpc_core9XdsClient12ChannelState12AdsCallState22IsCurrentCallOnChannelEv(ptr noundef nonnull readonly align 8 dereferenceable(144) %this) local_unnamed_addr #8 align 2 {
entry:
  %parent_.i = getelementptr inbounds i8, ptr %this, i64 16
  %0 = load ptr, ptr %parent_.i, align 8
  %chand_.i.i = getelementptr inbounds i8, ptr %0, i64 24
  %1 = load ptr, ptr %chand_.i.i, align 8
  %ads_calld_ = getelementptr inbounds i8, ptr %1, i64 48
  %2 = load ptr, ptr %ads_calld_, align 8
  %cmp.i.not.i = icmp eq ptr %2, null
  br i1 %cmp.i.not.i, label %return, label %if.end

if.end:                                           ; preds = %entry
  %calld_.i = getelementptr inbounds i8, ptr %2, i64 16
  %3 = load ptr, ptr %calld_.i, align 8
  %cmp = icmp eq ptr %3, %this
  br label %return

return:                                           ; preds = %entry, %if.end
  %retval.0 = phi i1 [ %cmp, %if.end ], [ false, %entry ]
  ret i1 %retval.0
}